; Function Attrs: mustprogress nounwind uwtable
define internal void @_ZN19OpenColorIO_v2_5dev12_GLOBAL__N_116InvLut3DRendererD0Ev(ptr noundef nonnull align 8 dereferenceable(176) initializes((0, 8), (24, 32)) %0) unnamed_addr #9 align 2 personality ptr @__gxx_personality_v0 {
  store ptr getelementptr inbounds nuw inrange(-16, 56) (i8, ptr @_ZTVN19OpenColorIO_v2_5dev12_GLOBAL__N_116InvLut3DRendererE, i64 16), ptr %0, align 8, !tbaa !50
  %2 = getelementptr inbounds nuw i8, ptr %0, i64 152
  %3 = load ptr, ptr %2, align 8, !tbaa !86
  %.not.i.i.i.i = icmp eq ptr %3, null
  br i1 %.not.i.i.i.i, label %_ZN19OpenColorIO_v2_5dev12_GLOBAL__N_116InvLut3DRendererD2Ev.exit, label %4

4:                                                ; preds = %1
  %5 = getelementptr inbounds nuw i8, ptr %0, i64 168
  %6 = load ptr, ptr %5, align 8, !tbaa !87
  %7 = ptrtoint ptr %6 to i64
  %8 = ptrtoint ptr %3 to i64
  %9 = sub i64 %7, %8
  tail call void @_ZdlPvm(ptr noundef nonnull %3, i64 noundef %9) #29
  br label %_ZN19OpenColorIO_v2_5dev12_GLOBAL__N_116InvLut3DRendererD2Ev.exit

_ZN19OpenColorIO_v2_5dev12_GLOBAL__N_116InvLut3DRendererD2Ev.exit: ; preds = %1, %4
  %10 = getelementptr inbounds nuw i8, ptr %0, i64 24
  tail call void @_ZN19OpenColorIO_v2_5dev12_GLOBAL__N_116InvLut3DRenderer9RangeTreeD2Ev(ptr noundef nonnull align 8 dereferenceable(128) %10) #28
  tail call void @_ZdlPvm(ptr noundef nonnull %0, i64 noundef 176) #29
  ret void
}